target datalayout = "e-m:e-p270:32:32-p271:32:32-p272:64:64-i64:64-i128:128-f80:128-n8:16:32:64-S128"
target triple = "x86_64-pc-linux-gnu"

%struct.auth_ops_t = type { ptr, ptr, ptr, ptr, ptr, ptr, ptr, ptr, ptr, ptr, ptr, ptr, ptr, ptr, ptr, ptr }

@g_context_num = internal global i32 -1, align 4
@.str.5 = private unnamed_addr constant [88 x i8] c"No hash plugins loaded. Was slurm_init() called before calling any Slurm API functions?\00", align 1
@ops = internal global ptr null, align 8

; Function Attrs: nounwind uwtable
define dso_local zeroext i1 @slurm_get_plugin_hash_enable(i32 noundef %0) #0 {
  %2 = alloca i32, align 4
  store i32 %0, ptr %2, align 4
  %3 = load i32, ptr @g_context_num, align 4
  %4 = icmp sle i32 %3, 0
  br i1 %4, label %5, label %6

5:                                                ; preds = %1
  call void (ptr, ...) @fatal(ptr noundef @.str.5) #7
  unreachable

6:                                                ; preds = %1
  %7 = load ptr, ptr @ops, align 8
  %8 = load i32, ptr %2, align 4
  %9 = sext i32 %8 to i64
  %10 = getelementptr inbounds %struct.auth_ops_t, ptr %7, i64 %9
  %11 = getelementptr inbounds nuw %struct.auth_ops_t, ptr %10, i32 0, i32 2
  %12 = load ptr, ptr %11, align 8
  %13 = load i8, ptr %12, align 1, !range !11, !noundef !12
  %14 = trunc i8 %13 to i1
  ret i1 %14
}