; Function Attrs: nounwind uwtable
define dso_local zeroext i1 @slurm_get_plugin_hash_enable(i32 noundef %0) local_unnamed_addr #2 {
  %2 = load i32, ptr @g_context_num, align 4
  %3 = icmp slt i32 %2, 1
  br i1 %3, label %4, label %5

4:                                                ; preds = %1
  tail call void (ptr, ...) @fatal(ptr noundef nonnull @.str.5) #11
  unreachable

5:                                                ; preds = %1
  %6 = load ptr, ptr @ops, align 8
  %7 = sext i32 %0 to i64
  %8 = getelementptr inbounds %struct.auth_ops_t, ptr %6, i64 %7, i32 2
  %9 = load ptr, ptr %8, align 8
  %10 = load i8, ptr %9, align 1, !range !11, !noundef !12
  %11 = trunc nuw i8 %10 to i1
  ret i1 %11
}